(dp0
S'/Users/samanthaknight/Documents/MoLease2012/three20/src/Three20UICommon/Sources/UIWindowAdditions.m'
p1
F1329000280.0
sS'/Users/samanthaknight/Documents/MoLease2012/three20/src/Three20UICommon/Sources/UIView+TTUICommon.m'
p2
F1329000280.0
sS'/Users/samanthaknight/Documents/MoLease2012/three20/src/Three20UICommon/Sources/TTGlobalUICommon.m'
p3
F1329000280.0
sS'/Users/samanthaknight/Documents/MoLease2012/three20/src/Three20UICommon/Headers/UIViewControllerAdditions.h'
p4
F1329000280.0
sS'/Users/samanthaknight/Documents/MoLease2012/three20/src/Three20UICommon/Headers/Three20UICommon+Additions.h'
p5
F1329000280.0
sS'/Users/samanthaknight/Documents/MoLease2012/three20/src/Three20UICommon/Headers/UISplitViewController+TTNavigator.h'
p6
F1329000280.0
sS'/Users/samanthaknight/Documents/MoLease2012/three20/src/Three20UICommon/UnitTests/UIViewControllerAdditionTests.m'
p7
F1329000280.0
sS'/Users/samanthaknight/Documents/MoLease2012/three20/src/Three20UICommon/Headers/TTGlobalUICommon.h'
p8
F1329000280.0
sS'/Users/samanthaknight/Documents/MoLease2012/three20/src/Three20UICommon/Headers/Three20UICommon.h'
p9
F1329000280.0
sS'/Users/samanthaknight/Documents/MoLease2012/three20/src/scripts/lint'
p10
F1329000280.0
sS'/Users/samanthaknight/Documents/MoLease2012/three20/src/Three20UICommon/Sources/TTBaseViewController.m'
p11
F1329000280.0
sS'/Users/samanthaknight/Documents/MoLease2012/three20/src/Three20UICommon/Headers/UIWindowAdditions.h'
p12
F1329000280.0
sS'/Users/samanthaknight/Documents/MoLease2012/three20/src/Three20UICommon/Headers/UIView+TTUICommon.h'
p13
F1329000280.0
sS'/Users/samanthaknight/Documents/MoLease2012/three20/src/Three20UICommon/Headers/TTBaseViewController.h'
p14
F1329000280.0
sS'/Users/samanthaknight/Documents/MoLease2012/three20/src/Three20UICommon/UnitTests/UICommonTests.m'
p15
F1329000280.0
sS'/Users/samanthaknight/Documents/MoLease2012/three20/src/Three20UICommon/Sources/UIViewControllerAdditions.m'
p16
F1329000280.0
sS'/Users/samanthaknight/Documents/MoLease2012/three20/src/Three20UICommon/Sources/UISplitViewController+TTNavigator.m'
p17
F1329000280.0
sS'/Users/samanthaknight/Documents/MoLease2012/three20/src/Three20UICommon/Headers/UIViewControllerGarbageCollection.h'
p18
F1329000280.0
s.