(dp0
S'/Users/samanthaknight/Documents/MoLease2012/three20/src/extThree20XML/Source/TTURLXMLResponse.m'
p1
F1329000280.0
sS'/Users/samanthaknight/Documents/MoLease2012/three20/src/extThree20XML/Source/TTXMLParser.m'
p2
F1329000280.0
sS'/Users/samanthaknight/Documents/MoLease2012/three20/src/extThree20XML/UnitTests/extXMLTests.m'
p3
F1329000280.0
sS'/Users/samanthaknight/Documents/MoLease2012/three20/src/extThree20XML/Headers/TTXMLParser.h'
p4
F1329000280.0
sS'/Users/samanthaknight/Documents/MoLease2012/three20/src/extThree20XML/../UnitTests/Xcode324iOS41TestSuiteWorkaround.m'
p5
F1329000280.0
sS'/Users/samanthaknight/Documents/MoLease2012/three20/src/scripts/lint'
p6
F1329000280.0
sS'/Users/samanthaknight/Documents/MoLease2012/three20/src/extThree20XML/Headers/TTURLXMLResponse.h'
p7
F1329000280.0
sS'/Users/samanthaknight/Documents/MoLease2012/three20/src/extThree20XML/Source/TTExtensionLoader.m'
p8
F1329000280.0
sS'/Users/samanthaknight/Documents/MoLease2012/three20/src/extThree20XML/Headers/TTExtensionLoader.h'
p9
F1329000280.0
sS'/Users/samanthaknight/Documents/MoLease2012/three20/src/extThree20XML/Headers/extThree20XML.h'
p10
F1329000280.0
s.