(dp0
S'/Users/samanthaknight/Documents/MoLease2012/three20/src/Three20Core/Headers/NSObjectAdditions.h'
p1
F1329000280.0
sS'/Users/samanthaknight/Documents/MoLease2012/three20/src/Three20Core/Sources/TTGlobalCoreLocale.m'
p2
F1329000280.0
sS'/Users/samanthaknight/Documents/MoLease2012/three20/src/Three20Core/Headers/TTExtensionInfo.h'
p3
F1329000280.0
sS'/Users/samanthaknight/Documents/MoLease2012/three20/src/scripts/lint'
p4
F1329000280.0
sS'/Users/samanthaknight/Documents/MoLease2012/three20/src/Three20Core/Headers/TTGlobalCoreRects.h'
p5
F1329000280.0
sS'/Users/samanthaknight/Documents/MoLease2012/three20/src/Three20Core/Headers/TTGlobalCoreLocale.h'
p6
F1329000280.0
sS'/Users/samanthaknight/Documents/MoLease2012/three20/src/Three20Core/Headers/Three20Core+Additions.h'
p7
F1329000280.0
sS'/Users/samanthaknight/Documents/MoLease2012/three20/src/Three20Core/Headers/TTExtensionLoader.h'
p8
F1329000280.0
sS'/Users/samanthaknight/Documents/MoLease2012/three20/src/Three20Core/Sources/TTExtensionAuthor.m'
p9
F1329000280.0
sS'/Users/samanthaknight/Documents/MoLease2012/three20/src/Three20Core/Headers/NSMutableArrayAdditions.h'
p10
F1329000280.0
sS'/Users/samanthaknight/Documents/MoLease2012/three20/src/Three20Core/Sources/NSDataAdditions.m'
p11
F1329000280.0
sS'/Users/samanthaknight/Documents/MoLease2012/three20/src/Three20Core/Headers/NSMutableDictionaryAdditions.h'
p12
F1329000280.0
sS'/Users/samanthaknight/Documents/MoLease2012/three20/src/Three20Core/Headers/Three20Core.h'
p13
F1329000280.0
sS'/Users/samanthaknight/Documents/MoLease2012/three20/src/Three20Core/Sources/TTGlobalCore.m'
p14
F1329000280.0
sS'/Users/samanthaknight/Documents/MoLease2012/three20/src/Three20Core/Sources/NSStringAdditions.m'
p15
F1329000280.0
sS'/Users/samanthaknight/Documents/MoLease2012/three20/src/Three20Core/Sources/TTMarkupStripper.m'
p16
F1329000280.0
sS'/Users/samanthaknight/Documents/MoLease2012/three20/src/Three20Core/Sources/TTExtensionLoader.m'
p17
F1329000280.0
sS'/Users/samanthaknight/Documents/MoLease2012/three20/src/Three20Core/Headers/NSDateAdditions.h'
p18
F1329000280.0
sS'/Users/samanthaknight/Documents/MoLease2012/three20/src/Three20Core/Headers/NSArrayAdditions.h'
p19
F1329000280.0
sS'/Users/samanthaknight/Documents/MoLease2012/three20/src/Three20Core/Headers/TTDebugFlags.h'
p20
F1329000280.0
sS'/Users/samanthaknight/Documents/MoLease2012/three20/src/Three20Core/Headers/TTExtensionAuthor.h'
p21
F1329000280.0
sS'/Users/samanthaknight/Documents/MoLease2012/three20/src/Three20Core/Sources/NSObjectAdditions.m'
p22
F1329000280.0
sS'/Users/samanthaknight/Documents/MoLease2012/three20/src/Three20Core/Headers/TTGlobalCore.h'
p23
F1329000280.0
sS'/Users/samanthaknight/Documents/MoLease2012/three20/src/Three20Core/Headers/NSStringAdditions.h'
p24
F1329000280.0
sS'/Users/samanthaknight/Documents/MoLease2012/three20/src/Three20Core/UnitTests/CoreGlobalTests.m'
p25
F1329000280.0
sS'/Users/samanthaknight/Documents/MoLease2012/three20/src/Three20Core/UnitTests/CoreMarkupStripperTests.m'
p26
F1329000280.0
sS'/Users/samanthaknight/Documents/MoLease2012/three20/src/Three20Core/Headers/TTEntityTables.h'
p27
F1329000280.0
sS'/Users/samanthaknight/Documents/MoLease2012/three20/src/Three20Core/Sources/TTExtensionInfo.m'
p28
F1329000280.0
sS'/Users/samanthaknight/Documents/MoLease2012/three20/src/Three20Core/Sources/NSArrayAdditions.m'
p29
F1329000280.0
sS'/Users/samanthaknight/Documents/MoLease2012/three20/src/Three20Core/Sources/TTDebug.m'
p30
F1329000280.0
sS'/Users/samanthaknight/Documents/MoLease2012/three20/src/Three20Core/Headers/TTExtensionInfoPrivate.h'
p31
F1329000280.0
sS'/Users/samanthaknight/Documents/MoLease2012/three20/src/Three20Core/Sources/NSDateAdditions.m'
p32
F1329000280.0
sS'/Users/samanthaknight/Documents/MoLease2012/three20/src/Three20Core/Sources/NSMutableArrayAdditions.m'
p33
F1329000280.0
sS'/Users/samanthaknight/Documents/MoLease2012/three20/src/Three20Core/UnitTests/CoreAdditionTests.m'
p34
F1329000280.0
sS'/Users/samanthaknight/Documents/MoLease2012/three20/src/Three20Core/Headers/TTDebug.h'
p35
F1329000280.0
sS'/Users/samanthaknight/Documents/MoLease2012/three20/src/Three20Core/Sources/TTGlobalCoreRects.m'
p36
F1329000280.0
sS'/Users/samanthaknight/Documents/MoLease2012/three20/src/Three20Core/Sources/TTEntityTables.m'
p37
F1329000280.0
sS'/Users/samanthaknight/Documents/MoLease2012/three20/src/Three20Core/Headers/TTCorePreprocessorMacros.h'
p38
F1329000280.0
sS'/Users/samanthaknight/Documents/MoLease2012/three20/src/Three20Core/Sources/TTGlobalCorePaths.m'
p39
F1329000280.0
sS'/Users/samanthaknight/Documents/MoLease2012/three20/src/Three20Core/Sources/NSMutableDictionaryAdditions.m'
p40
F1329000280.0
sS'/Users/samanthaknight/Documents/MoLease2012/three20/src/Three20Core/Headers/TTMarkupStripper.h'
p41
F1329000280.0
sS'/Users/samanthaknight/Documents/MoLease2012/three20/src/Three20Core/Headers/TTGlobalCorePaths.h'
p42
F1329000280.0
sS'/Users/samanthaknight/Documents/MoLease2012/three20/src/Three20Core/Headers/NSDataAdditions.h'
p43
F1329000280.0
s.