(dp0
S'/Users/samanthaknight/Documents/MoLease2012/three20/src/Three20UI/Sources/TTTableLinkedItem.m'
p1
F1329000280.0
sS'/Users/samanthaknight/Documents/MoLease2012/three20/src/Three20UI/Headers/TTTab.h'
p2
F1329000280.0
sS'/Users/samanthaknight/Documents/MoLease2012/three20/src/Three20UI/Sources/TTAlertView.m'
p3
F1329000280.0
sS'/Users/samanthaknight/Documents/MoLease2012/three20/src/Three20UI/Sources/TTView.m'
p4
F1329000280.0
sS'/Users/samanthaknight/Documents/MoLease2012/three20/src/Three20UI/Headers/TTTableViewVarHeightDelegate.h'
p5
F1329000280.0
sS'/Users/samanthaknight/Documents/MoLease2012/three20/src/scripts/lint'
p6
F1329000280.0
sS'/Users/samanthaknight/Documents/MoLease2012/three20/src/Three20UI/Headers/TTStyledTextLabel.h'
p7
F1329000280.0
sS'/Users/samanthaknight/Documents/MoLease2012/three20/src/Three20UI/Headers/TTTableSummaryItem.h'
p8
F1329000280.0
sS'/Users/samanthaknight/Documents/MoLease2012/three20/src/Three20UI/Headers/TTScrollView.h'
p9
F1329000280.0
sS'/Users/samanthaknight/Documents/MoLease2012/three20/src/Three20UI/Sources/TTTabGrid.m'
p10
F1329000280.0
sS'/Users/samanthaknight/Documents/MoLease2012/three20/src/Three20UI/Headers/TTWebController.h'
p11
F1329000280.0
sS'/Users/samanthaknight/Documents/MoLease2012/three20/src/Three20UI/Sources/TTImageView.m'
p12
F1329000280.0
sS'/Users/samanthaknight/Documents/MoLease2012/three20/src/Three20UI/Headers/TTThumbsViewControllerDelegate.h'
p13
F1329000280.0
sS'/Users/samanthaknight/Documents/MoLease2012/three20/src/Three20UI/Sources/TTTableViewPlainVarHeightDelegate.m'
p14
F1329000280.0
sS'/Users/samanthaknight/Documents/MoLease2012/three20/src/Three20UI/Headers/TTTableImageItemCell.h'
p15
F1329000280.0
sS'/Users/samanthaknight/Documents/MoLease2012/three20/src/Three20UI/Headers/TTYouTubeView.h'
p16
F1329000280.0
sS'/Users/samanthaknight/Documents/MoLease2012/three20/src/Three20UI/Headers/TTThumbView.h'
p17
F1329000280.0
sS'/Users/samanthaknight/Documents/MoLease2012/three20/src/Three20UI/Headers/TTTextView.h'
p18
F1329000280.0
sS'/Users/samanthaknight/Documents/MoLease2012/three20/src/Three20UI/Headers/TTTabDelegate.h'
p19
F1329000280.0
sS'/Users/samanthaknight/Documents/MoLease2012/three20/src/Three20UI/Sources/TTTextBarController.m'
p20
F1329000280.0
sS'/Users/samanthaknight/Documents/MoLease2012/three20/src/Three20UI/Sources/TTTabBarInternal.m'
p21
F1329000280.0
sS'/Users/samanthaknight/Documents/MoLease2012/three20/src/Three20UI/Sources/TTTableSubtitleItem.m'
p22
F1329000280.0
sS'/Users/samanthaknight/Documents/MoLease2012/three20/src/Three20UI/Sources/TTTableLongTextItem.m'
p23
F1329000280.0
sS'/Users/samanthaknight/Documents/MoLease2012/three20/src/Three20UI/Headers/TTAlertView.h'
p24
F1329000280.0
sS'/Users/samanthaknight/Documents/MoLease2012/three20/src/Three20UI/Sources/TTUnclippedView.m'
p25
F1329000280.0
sS'/Users/samanthaknight/Documents/MoLease2012/three20/src/Three20UI/Headers/TTTableStyledTextItem.h'
p26
F1329000280.0
sS'/Users/samanthaknight/Documents/MoLease2012/three20/src/Three20UI/Headers/TTTableMessageItem.h'
p27
F1329000280.0
sS'/Users/samanthaknight/Documents/MoLease2012/three20/src/Three20UI/Sources/UINSObjectAdditions.m'
p28
F1329000280.0
sS'/Users/samanthaknight/Documents/MoLease2012/three20/src/Three20UI/Headers/TTActionSheet.h'
p29
F1329000280.0
sS'/Users/samanthaknight/Documents/MoLease2012/three20/src/Three20UI/Sources/TTSplitViewController.m'
p30
F1329000280.0
sS'/Users/samanthaknight/Documents/MoLease2012/three20/src/Three20UI/Headers/TTPickerTextField.h'
p31
F1329000280.0
sS'/Users/samanthaknight/Documents/MoLease2012/three20/src/Three20UI/Headers/TTNavigatorWindow.h'
p32
F1329000280.0
sS'/Users/samanthaknight/Documents/MoLease2012/three20/src/Three20UI/Sources/TTTableRightCaptionItemCell.m'
p33
F1329000280.0
sS'/Users/samanthaknight/Documents/MoLease2012/three20/src/Three20UI/Sources/TTYouTubeView.m'
p34
F1329000280.0
sS'/Users/samanthaknight/Documents/MoLease2012/three20/src/Three20UI/Headers/TTTableMoreButtonCell.h'
p35
F1329000280.0
sS'/Users/samanthaknight/Documents/MoLease2012/three20/src/Three20UI/Sources/TTThumbsTableViewCell.m'
p36
F1329000280.0
sS'/Users/samanthaknight/Documents/MoLease2012/three20/src/Three20UI/Headers/Three20UI+Additions.h'
p37
F1329000280.0
sS'/Users/samanthaknight/Documents/MoLease2012/three20/src/Three20UI/Sources/TTLabel.m'
p38
F1329000280.0
sS'/Users/samanthaknight/Documents/MoLease2012/three20/src/Three20UI/Headers/TTPickerTextFieldDelegate.h'
p39
F1329000280.0
sS'/Users/samanthaknight/Documents/MoLease2012/three20/src/Three20UI/Sources/TTImageLayer.m'
p40
F1329000280.0
sS'/Users/samanthaknight/Documents/MoLease2012/three20/src/Three20UI/Sources/TTTableView.m'
p41
F1329000280.0
sS'/Users/samanthaknight/Documents/MoLease2012/three20/src/Three20UI/Sources/TTTableMoreButton.m'
p42
F1329000280.0
sS'/Users/samanthaknight/Documents/MoLease2012/three20/src/Three20UI/Sources/TTPickerViewCell.m'
p43
F1329000280.0
sS'/Users/samanthaknight/Documents/MoLease2012/three20/src/Three20UI/Sources/TTExtensionInfoController.m'
p44
F1329000280.0
sS'/Users/samanthaknight/Documents/MoLease2012/three20/src/Three20UI/Headers/TTSearchBar.h'
p45
F1329000280.0
sS'/Users/samanthaknight/Documents/MoLease2012/three20/src/Three20UI/Headers/TTTableHeaderDragRefreshView.h'
p46
F1329000280.0
sS'/Users/samanthaknight/Documents/MoLease2012/three20/src/Three20UI/Sources/TTErrorView.m'
p47
F1329000280.0
sS'/Users/samanthaknight/Documents/MoLease2012/three20/src/Three20UI/Sources/TTTextEditorInternal.m'
p48
F1329000280.0
sS'/Users/samanthaknight/Documents/MoLease2012/three20/src/Three20UI/Headers/TTTableItem.h'
p49
F1329000280.0
sS'/Users/samanthaknight/Documents/MoLease2012/three20/src/Three20UI/Headers/TTTableFlushViewCell.h'
p50
F1329000280.0
sS'/Users/samanthaknight/Documents/MoLease2012/three20/src/Three20UI/Headers/TTTableSubtextItem.h'
p51
F1329000280.0
sS'/Users/samanthaknight/Documents/MoLease2012/three20/src/Three20UI/Headers/TTLauncherView.h'
p52
F1329000280.0
sS'/Users/samanthaknight/Documents/MoLease2012/three20/src/Three20UI/Headers/TTTableCaptionItem.h'
p53
F1329000280.0
sS'/Users/samanthaknight/Documents/MoLease2012/three20/src/Three20UI/Sources/TTTableRightCaptionItem.m'
p54
F1329000280.0
sS'/Users/samanthaknight/Documents/MoLease2012/three20/src/Three20UI/Headers/Three20UI.h'
p55
F1329000280.0
sS'/Users/samanthaknight/Documents/MoLease2012/three20/src/Three20UI/Headers/TTTableTextItem.h'
p56
F1329000280.0
sS'/Users/samanthaknight/Documents/MoLease2012/three20/src/Three20UI/Sources/TTActionSheetController.m'
p57
F1329000280.0
sS'/Users/samanthaknight/Documents/MoLease2012/three20/src/Three20UI/Headers/TTTableSubtitleItem.h'
p58
F1329000280.0
sS'/Users/samanthaknight/Documents/MoLease2012/three20/src/Three20UI/Headers/TTTableImageItem.h'
p59
F1329000280.0
sS'/Users/samanthaknight/Documents/MoLease2012/three20/src/Three20UI/Headers/UIViewAdditions.h'
p60
F1329000280.0
sS'/Users/samanthaknight/Documents/MoLease2012/three20/src/Three20UI/Headers/TTTableMoreButton.h'
p61
F1329000280.0
sS'/Users/samanthaknight/Documents/MoLease2012/three20/src/Three20UI/Sources/TTTableFlushViewCell.m'
p62
F1329000280.0
sS'/Users/samanthaknight/Documents/MoLease2012/three20/src/Three20UI/Sources/TTSectionedDataSource.m'
p63
F1329000280.0
sS'/Users/samanthaknight/Documents/MoLease2012/three20/src/Three20UI/Headers/TTImageLayer.h'
p64
F1329000280.0
sS'/Users/samanthaknight/Documents/MoLease2012/three20/src/Three20UI/Headers/TTTableViewController.h'
p65
F1329000280.0
sS'/Users/samanthaknight/Documents/MoLease2012/three20/src/Three20UI/Headers/TTTableViewPlainDelegate.h'
p66
F1329000280.0
sS'/Users/samanthaknight/Documents/MoLease2012/three20/src/Three20UI/Headers/TTTableTextItemCell.h'
p67
F1329000280.0
sS'/Users/samanthaknight/Documents/MoLease2012/three20/src/Three20UI/Headers/TTExtensionsController.h'
p68
F1329000280.0
sS'/Users/samanthaknight/Documents/MoLease2012/three20/src/Three20UI/Headers/TTSearchTextFieldDelegate.h'
p69
F1329000280.0
sS'/Users/samanthaknight/Documents/MoLease2012/three20/src/Three20UI/Sources/TTTabStrip.m'
p70
F1329000280.0
sS'/Users/samanthaknight/Documents/MoLease2012/three20/src/Three20UI/Sources/TTTableFooterInfiniteScrollView.m'
p71
F1329000280.0
sS'/Users/samanthaknight/Documents/MoLease2012/three20/src/Three20UI/Headers/TTLauncherScrollView.h'
p72
F1329000280.0
sS'/Users/samanthaknight/Documents/MoLease2012/three20/src/Three20UI/Sources/UINSStringAdditions.m'
p73
F1329000280.0
sS'/Users/samanthaknight/Documents/MoLease2012/three20/src/Three20UI/Headers/UITabBarControllerAdditions.h'
p74
F1329000280.0
sS'/Users/samanthaknight/Documents/MoLease2012/three20/src/Three20UI/Headers/TTActivityLabel.h'
p75
F1329000280.0
sS'/Users/samanthaknight/Documents/MoLease2012/three20/src/Three20UI/Sources/TTViewController.m'
p76
F1329000280.0
sS'/Users/samanthaknight/Documents/MoLease2012/three20/src/Three20UI/Headers/TTPopupViewController.h'
p77
F1329000280.0
sS'/Users/samanthaknight/Documents/MoLease2012/three20/src/Three20UI/Headers/TTLauncherViewDelegate.h'
p78
F1329000280.0
sS'/Users/samanthaknight/Documents/MoLease2012/three20/src/Three20UI/Headers/TTMessageController.h'
p79
F1329000280.0
sS'/Users/samanthaknight/Documents/MoLease2012/three20/src/Three20UI/Headers/TTPhoto.h'
p80
F1329000280.0
sS'/Users/samanthaknight/Documents/MoLease2012/three20/src/Three20UI/Headers/TTMessageRecipientField.h'
p81
F1329000280.0
sS'/Users/samanthaknight/Documents/MoLease2012/three20/src/Three20UI/Sources/TTTextView.m'
p82
F1329000280.0
sS'/Users/samanthaknight/Documents/MoLease2012/three20/src/Three20UI/Sources/TTLauncherItem.m'
p83
F1329000280.0
sS'/Users/samanthaknight/Documents/MoLease2012/three20/src/Three20UI/Sources/TTPostController.m'
p84
F1329000280.0
sS'/Users/samanthaknight/Documents/MoLease2012/three20/src/Three20UI/Sources/TTPageControl.m'
p85
F1329000280.0
sS'/Users/samanthaknight/Documents/MoLease2012/three20/src/Three20UI/Headers/TTTableViewPlainVarHeightDelegate.h'
p86
F1329000280.0
sS'/Users/samanthaknight/Documents/MoLease2012/three20/src/Three20UI/Headers/TTAlertViewController.h'
p87
F1329000280.0
sS'/Users/samanthaknight/Documents/MoLease2012/three20/src/Three20UI/Headers/TTNavigationController.h'
p88
F1329000280.0
sS'/Users/samanthaknight/Documents/MoLease2012/three20/src/Three20UI/Sources/TTActionSheet.m'
p89
F1329000280.0
sS'/Users/samanthaknight/Documents/MoLease2012/three20/src/Three20UI/Sources/TTPhotoView.m'
p90
F1329000280.0
sS'/Users/samanthaknight/Documents/MoLease2012/three20/src/Three20UI/Headers/TTButtonContent.h'
p91
F1329000280.0
sS'/Users/samanthaknight/Documents/MoLease2012/three20/src/Three20UI/Sources/TTTableViewDataSource.m'
p92
F1329000280.0
sS'/Users/samanthaknight/Documents/MoLease2012/three20/src/Three20UI/Headers/TTExtensionInfoController.h'
p93
F1329000280.0
sS'/Users/samanthaknight/Documents/MoLease2012/three20/src/Three20UI/Sources/TTTableSubtextItemCell.m'
p94
F1329000280.0
sS'/Users/samanthaknight/Documents/MoLease2012/three20/src/Three20UI/Headers/TTTabBarInternal.h'
p95
F1329000280.0
sS'/Users/samanthaknight/Documents/MoLease2012/three20/src/Three20UI/Sources/TTTableImageItemCell.m'
p96
F1329000280.0
sS'/Users/samanthaknight/Documents/MoLease2012/three20/src/Three20UI/Headers/TTTabGrid.h'
p97
F1329000280.0
sS'/Users/samanthaknight/Documents/MoLease2012/three20/src/Three20UI/Headers/TTSearchTextField.h'
p98
F1329000280.0
sS'/Users/samanthaknight/Documents/MoLease2012/three20/src/Three20UI/Sources/TTTableHeaderView.m'
p99
F1329000280.0
sS'/Users/samanthaknight/Documents/MoLease2012/three20/src/Three20UI/Sources/TTSearchBar.m'
p100
F1329000280.0
sS'/Users/samanthaknight/Documents/MoLease2012/three20/src/Three20UI/Headers/TTScrollViewDelegate.h'
p101
F1329000280.0
sS'/Users/samanthaknight/Documents/MoLease2012/three20/src/Three20UI/Sources/TTTableViewDragRefreshDelegate.m'
p102
F1329000280.0
sS'/Users/samanthaknight/Documents/MoLease2012/three20/src/Three20UI/Headers/TTTableMessageItemCell.h'
p103
F1329000280.0
sS'/Users/samanthaknight/Documents/MoLease2012/three20/src/Three20UI/Sources/TTTableLink.m'
p104
F1329000280.0
sS'/Users/samanthaknight/Documents/MoLease2012/three20/src/Three20UI/Sources/TTTableMessageItem.m'
p105
F1329000280.0
sS'/Users/samanthaknight/Documents/MoLease2012/three20/src/Three20UI/Headers/TTTableLinkedItem.h'
p106
F1329000280.0
sS'/Users/samanthaknight/Documents/MoLease2012/three20/src/Three20UI/Sources/TTModelViewController.m'
p107
F1329000280.0
sS'/Users/samanthaknight/Documents/MoLease2012/three20/src/Three20UI/Sources/TTLauncherButton.m'
p108
F1329000280.0
sS'/Users/samanthaknight/Documents/MoLease2012/three20/src/Three20UI/Sources/TTTableItem.m'
p109
F1329000280.0
sS'/Users/samanthaknight/Documents/MoLease2012/three20/src/Three20UI/Sources/TTSearchTextFieldInternal.m'
p110
F1329000280.0
sS'/Users/samanthaknight/Documents/MoLease2012/three20/src/Three20UI/Headers/UINSObjectAdditions.h'
p111
F1329000280.0
sS'/Users/samanthaknight/Documents/MoLease2012/three20/src/Three20UI/Sources/TTTableSubtextItem.m'
p112
F1329000280.0
sS'/Users/samanthaknight/Documents/MoLease2012/three20/src/Three20UI/Headers/TTPhotoViewController.h'
p113
F1329000280.0
sS'/Users/samanthaknight/Documents/MoLease2012/three20/src/Three20UI/Headers/TTSearchTextFieldInternal.h'
p114
F1329000280.0
sS'/Users/samanthaknight/Documents/MoLease2012/three20/src/Three20UI/Headers/TTModelViewController.h'
p115
F1329000280.0
sS'/Users/samanthaknight/Documents/MoLease2012/three20/src/Three20UI/Headers/TTTableActivityItemCell.h'
p116
F1329000280.0
sS'/Users/samanthaknight/Documents/MoLease2012/three20/src/Three20UI/Sources/TTSearchTextField.m'
p117
F1329000280.0
sS'/Users/samanthaknight/Documents/MoLease2012/three20/src/Three20UI/Sources/TTMessageController.m'
p118
F1329000280.0
sS'/Users/samanthaknight/Documents/MoLease2012/three20/src/Three20UI/Sources/TTStyledTextTableCell.m'
p119
F1329000280.0
sS'/Users/samanthaknight/Documents/MoLease2012/three20/src/Three20UI/Sources/TTTableCaptionItemCell.m'
p120
F1329000280.0
sS'/Users/samanthaknight/Documents/MoLease2012/three20/src/Three20UI/Headers/TTSearchlightLabel.h'
p121
F1329000280.0
sS'/Users/samanthaknight/Documents/MoLease2012/three20/src/Three20UI/Headers/TTLabel.h'
p122
F1329000280.0
sS'/Users/samanthaknight/Documents/MoLease2012/three20/src/Three20UI/Headers/TTMessageControllerDelegate.h'
p123
F1329000280.0
sS'/Users/samanthaknight/Documents/MoLease2012/three20/src/Three20UI/Headers/TTTextEditor.h'
p124
F1329000280.0
sS'/Users/samanthaknight/Documents/MoLease2012/three20/src/Three20UI/Headers/UIWebViewAdditions.h'
p125
F1329000280.0
sS'/Users/samanthaknight/Documents/MoLease2012/three20/src/Three20UI/Headers/TTThumbsViewController.h'
p126
F1329000280.0
sS'/Users/samanthaknight/Documents/MoLease2012/three20/src/Three20UI/Sources/TTPickerTextField.m'
p127
F1329000280.0
sS'/Users/samanthaknight/Documents/MoLease2012/three20/src/Three20UI/Headers/TTTableLink.h'
p128
F1329000280.0
sS'/Users/samanthaknight/Documents/MoLease2012/three20/src/Three20UI/Sources/TTTableViewGroupedVarHeightDelegate.m'
p129
F1329000280.0
sS'/Users/samanthaknight/Documents/MoLease2012/three20/src/Three20UI/Sources/TTTableViewCell.m'
p130
F1329000280.0
sS'/Users/samanthaknight/Documents/MoLease2012/three20/src/Three20UI/Headers/TTRecursiveProgress.h'
p131
F1329000280.0
sS'/Users/samanthaknight/Documents/MoLease2012/three20/src/Three20UI/Headers/TTTableSubtitleItemCell.h'
p132
F1329000280.0
sS'/Users/samanthaknight/Documents/MoLease2012/three20/src/Three20UI/Sources/TTRecursiveProgress.m'
p133
F1329000280.0
sS'/Users/samanthaknight/Documents/MoLease2012/three20/src/Three20UI/Sources/TTTableCaptionItem.m'
p134
F1329000280.0
sS'/Users/samanthaknight/Documents/MoLease2012/three20/src/Three20UI/Sources/TTTableControlItem.m'
p135
F1329000280.0
sS'/Users/samanthaknight/Documents/MoLease2012/three20/src/Three20UI/Sources/TTTableSummaryItem.m'
p136
F1329000280.0
sS'/Users/samanthaknight/Documents/MoLease2012/three20/src/Three20UI/Headers/TTListDataSource.h'
p137
F1329000280.0
sS'/Users/samanthaknight/Documents/MoLease2012/three20/src/Three20UI/Sources/TTTabBar.m'
p138
F1329000280.0
sS'/Users/samanthaknight/Documents/MoLease2012/three20/src/Three20UI/Headers/TTTableLongTextItem.h'
p139
F1329000280.0
sS'/Users/samanthaknight/Documents/MoLease2012/three20/src/Three20UI/Headers/TTTableView.h'
p140
F1329000280.0
sS'/Users/samanthaknight/Documents/MoLease2012/three20/src/Three20UI/Headers/TTTextBarController.h'
p141
F1329000280.0
sS'/Users/samanthaknight/Documents/MoLease2012/three20/src/Three20UI/Headers/TTTableButton.h'
p142
F1329000280.0
sS'/Users/samanthaknight/Documents/MoLease2012/three20/src/Three20UI/Headers/TTUnclippedView.h'
p143
F1329000280.0
sS'/Users/samanthaknight/Documents/MoLease2012/three20/src/Three20UI/Headers/TTAlertViewControllerDelegate.h'
p144
F1329000280.0
sS'/Users/samanthaknight/Documents/MoLease2012/three20/src/Three20UI/Headers/TTScrollViewDataSource.h'
p145
F1329000280.0
sS'/Users/samanthaknight/Documents/MoLease2012/three20/src/Three20UI/Headers/TTViewController.h'
p146
F1329000280.0
sS'/Users/samanthaknight/Documents/MoLease2012/three20/src/Three20UI/Headers/TTLauncherHighlightView.h'
p147
F1329000280.0
sS'/Users/samanthaknight/Documents/MoLease2012/three20/src/Three20UI/Headers/TTImageView.h'
p148
F1329000280.0
sS'/Users/samanthaknight/Documents/MoLease2012/three20/src/Three20UI/Headers/TTTabBar.h'
p149
F1329000280.0
sS'/Users/samanthaknight/Documents/MoLease2012/three20/src/Three20UI/Sources/TTThumbsViewController.m'
p150
F1329000280.0
sS'/Users/samanthaknight/Documents/MoLease2012/three20/src/Three20UI/Sources/TTTab.m'
p151
F1329000280.0
sS'/Users/samanthaknight/Documents/MoLease2012/three20/src/Three20UI/Headers/TTTableGrayTextItem.h'
p152
F1329000280.0
sS'/Users/samanthaknight/Documents/MoLease2012/three20/src/Three20UI/Headers/TTLauncherItem.h'
p153
F1329000280.0
sS'/Users/samanthaknight/Documents/MoLease2012/three20/src/Three20UI/Sources/TTTableRightImageItem.m'
p154
F1329000280.0
sS'/Users/samanthaknight/Documents/MoLease2012/three20/src/Three20UI/Headers/TTTableHeaderView.h'
p155
F1329000280.0
sS'/Users/samanthaknight/Documents/MoLease2012/three20/src/Three20UI/Headers/TTTableActivityItem.h'
p156
F1329000280.0
sS'/Users/samanthaknight/Documents/MoLease2012/three20/src/Three20UI/Headers/TTTableCaptionItemCell.h'
p157
F1329000280.0
sS'/Users/samanthaknight/Documents/MoLease2012/three20/src/Three20UI/Sources/TTTableTextItem.m'
p158
F1329000280.0
sS'/Users/samanthaknight/Documents/MoLease2012/three20/src/Three20UI/Headers/TTSearchDisplayController.h'
p159
F1329000280.0
sS'/Users/samanthaknight/Documents/MoLease2012/three20/src/Three20UI/Sources/TTButtonContent.m'
p160
F1329000280.0
sS'/Users/samanthaknight/Documents/MoLease2012/three20/src/Three20UI/Headers/TTTableRightImageItem.h'
p161
F1329000280.0
sS'/Users/samanthaknight/Documents/MoLease2012/three20/src/Three20UI/Sources/TTThumbView.m'
p162
F1329000280.0
sS'/Users/samanthaknight/Documents/MoLease2012/three20/src/Three20UI/Headers/TTMessageTextField.h'
p163
F1329000280.0
sS'/Users/samanthaknight/Documents/MoLease2012/three20/src/Three20UI/Headers/TTTextEditorDelegate.h'
p164
F1329000280.0
sS'/Users/samanthaknight/Documents/MoLease2012/three20/src/Three20UI/Headers/TTTableViewItem.h'
p165
F1329000280.0
sS'/Users/samanthaknight/Documents/MoLease2012/three20/src/Three20UI/Headers/TTTableViewNetworkEnabledDelegate.h'
p166
F1329000280.0
sS'/Users/samanthaknight/Documents/MoLease2012/three20/src/Three20UI/Headers/TTSectionedDataSource.h'
p167
F1329000280.0
sS'/Users/samanthaknight/Documents/MoLease2012/three20/src/Three20UI/Headers/TTThumbsDataSource.h'
p168
F1329000280.0
sS'/Users/samanthaknight/Documents/MoLease2012/three20/src/Three20UI/Sources/TTPopupViewController.m'
p169
F1329000280.0
sS'/Users/samanthaknight/Documents/MoLease2012/three20/src/Three20UI/Headers/TTTableControlCell.h'
p170
F1329000280.0
sS'/Users/samanthaknight/Documents/MoLease2012/three20/src/Three20UI/Sources/TTActivityLabel.m'
p171
F1329000280.0
sS'/Users/samanthaknight/Documents/MoLease2012/three20/src/Three20UI/Headers/TTLink.h'
p172
F1329000280.0
sS'/Users/samanthaknight/Documents/MoLease2012/three20/src/Three20UI/Headers/TTNavigator.h'
p173
F1329000280.0
sS'/Users/samanthaknight/Documents/MoLease2012/three20/src/Three20UI/Sources/TTLauncherScrollView.m'
p174
F1329000280.0
sS'/Users/samanthaknight/Documents/MoLease2012/three20/src/Three20UI/Sources/TTThumbsDataSource.m'
p175
F1329000280.0
sS'/Users/samanthaknight/Documents/MoLease2012/three20/src/Three20UI/Headers/TTTableViewCell.h'
p176
F1329000280.0
sS'/Users/samanthaknight/Documents/MoLease2012/three20/src/Three20UI/Headers/TTTabStrip.h'
p177
F1329000280.0
sS'/Users/samanthaknight/Documents/MoLease2012/three20/src/Three20UI/Headers/TTButton.h'
p178
F1329000280.0
sS'/Users/samanthaknight/Documents/MoLease2012/three20/src/Three20UI/Headers/TTPickerViewCell.h'
p179
F1329000280.0
sS'/Users/samanthaknight/Documents/MoLease2012/three20/src/Three20UI/Headers/TTPageControl.h'
p180
F1329000280.0
sS'/Users/samanthaknight/Documents/MoLease2012/three20/src/Three20UI/Headers/TTTextBarDelegate.h'
p181
F1329000280.0
sS'/Users/samanthaknight/Documents/MoLease2012/three20/src/Three20UI/Sources/TTLauncherHighlightView.m'
p182
F1329000280.0
sS'/Users/samanthaknight/Documents/MoLease2012/three20/src/Three20UI/Headers/TTImageViewInternal.h'
p183
F1329000280.0
sS'/Users/samanthaknight/Documents/MoLease2012/three20/src/Three20UI/Sources/TTNavigationController.m'
p184
F1329000280.0
sS'/Users/samanthaknight/Documents/MoLease2012/three20/src/Three20UI/Sources/UIViewAdditions.m'
p185
F1329000280.0
sS'/Users/samanthaknight/Documents/MoLease2012/three20/src/Three20UI/Headers/TTTableControlItem.h'
p186
F1329000280.0
sS'/Users/samanthaknight/Documents/MoLease2012/three20/src/Three20UI/Headers/TTView.h'
p187
F1329000280.0
sS'/Users/samanthaknight/Documents/MoLease2012/three20/src/Three20UI/Sources/TTTableButton.m'
p188
F1329000280.0
sS'/Users/samanthaknight/Documents/MoLease2012/three20/src/Three20UI/Headers/TTMessageField.h'
p189
F1329000280.0
sS'/Users/samanthaknight/Documents/MoLease2012/three20/src/Three20UI/Headers/UINSStringAdditions.h'
p190
F1329000280.0
sS'/Users/samanthaknight/Documents/MoLease2012/three20/src/Three20UI/Sources/UIToolbarAdditions.m'
p191
F1329000280.0
sS'/Users/samanthaknight/Documents/MoLease2012/three20/src/Three20UI/Headers/TTPostController.h'
p192
F1329000280.0
sS'/Users/samanthaknight/Documents/MoLease2012/three20/src/Three20UI/Sources/TTTableSubtitleItemCell.m'
p193
F1329000280.0
sS'/Users/samanthaknight/Documents/MoLease2012/three20/src/Three20UI/Sources/TTTableHeaderDragRefreshView.m'
p194
F1329000280.0
sS'/Users/samanthaknight/Documents/MoLease2012/three20/src/Three20UI/Sources/TTAlertViewController.m'
p195
F1329000280.0
sS'/Users/samanthaknight/Documents/MoLease2012/three20/src/Three20UI/Headers/TTTextEditorInternal.h'
p196
F1329000280.0
sS'/Users/samanthaknight/Documents/MoLease2012/three20/src/Three20UI/Headers/TTPhotoSource.h'
p197
F1329000280.0
sS'/Users/samanthaknight/Documents/MoLease2012/three20/src/Three20UI/Sources/TTTableGrayTextItem.m'
p198
F1329000280.0
sS'/Users/samanthaknight/Documents/MoLease2012/three20/src/Three20UI/UnitTests/UIGlobalTests.m'
p199
F1329000280.0
sS'/Users/samanthaknight/Documents/MoLease2012/three20/src/Three20UI/Sources/TTStyledTextLabel.m'
p200
F1329000280.0
sS'/Users/samanthaknight/Documents/MoLease2012/three20/src/Three20UI/Headers/TTLauncherButton.h'
p201
F1329000280.0
sS'/Users/samanthaknight/Documents/MoLease2012/three20/src/Three20UI/Headers/TTTableViewDragRefreshDelegate.h'
p202
F1329000280.0
sS'/Users/samanthaknight/Documents/MoLease2012/three20/src/Three20UI/Headers/TTTabItem.h'
p203
F1329000280.0
sS'/Users/samanthaknight/Documents/MoLease2012/three20/src/Three20UI/Sources/UINavigationControllerAdditions.m'
p204
F1329000280.0
sS'/Users/samanthaknight/Documents/MoLease2012/three20/src/Three20UI/Headers/TTImageViewDelegate.h'
p205
F1329000280.0
sS'/Users/samanthaknight/Documents/MoLease2012/three20/src/Three20UI/Headers/TTSplitViewController.h'
p206
F1329000280.0
sS'/Users/samanthaknight/Documents/MoLease2012/three20/src/Three20UI/Sources/TTTableActivityItemCell.m'
p207
F1329000280.0
sS'/Users/samanthaknight/Documents/MoLease2012/three20/src/Three20UI/Sources/TTNavigator.m'
p208
F1329000280.0
sS'/Users/samanthaknight/Documents/MoLease2012/three20/src/Three20UI/Headers/UINavigationControllerAdditions.h'
p209
F1329000280.0
sS'/Users/samanthaknight/Documents/MoLease2012/three20/src/Three20UI/Headers/TTThumbsTableViewCell.h'
p210
F1329000280.0
sS'/Users/samanthaknight/Documents/MoLease2012/three20/src/Three20UI/Sources/TTLink.m'
p211
F1329000280.0
sS'/Users/samanthaknight/Documents/MoLease2012/three20/src/Three20UI/Sources/TTTabItem.m'
p212
F1329000280.0
sS'/Users/samanthaknight/Documents/MoLease2012/three20/src/Three20UI/Sources/UITabBarControllerAdditions.m'
p213
F1329000280.0
sS'/Users/samanthaknight/Documents/MoLease2012/three20/src/Three20UI/Sources/TTImageViewInternal.m'
p214
F1329000280.0
sS'/Users/samanthaknight/Documents/MoLease2012/three20/src/Three20UI/Sources/TTTableViewItem.m'
p215
F1329000280.0
sS'/Users/samanthaknight/Documents/MoLease2012/three20/src/Three20UI/Sources/TTSearchlightLabel.m'
p216
F1329000280.0
sS'/Users/samanthaknight/Documents/MoLease2012/three20/src/Three20UI/Headers/TTTableFooterInfiniteScrollView.h'
p217
F1329000280.0
sS'/Users/samanthaknight/Documents/MoLease2012/three20/src/Three20UI/Headers/TTMessageSubjectField.h'
p218
F1329000280.0
sS'/Users/samanthaknight/Documents/MoLease2012/three20/src/Three20UI/Sources/TTTableStyledTextItem.m'
p219
F1329000280.0
sS'/Users/samanthaknight/Documents/MoLease2012/three20/src/Three20UI/Sources/TTExtensionsController.m'
p220
F1329000280.0
sS'/Users/samanthaknight/Documents/MoLease2012/three20/src/Three20UI/Headers/TTPostControllerDelegate.h'
p221
F1329000280.0
sS'/Users/samanthaknight/Documents/MoLease2012/three20/src/Three20UI/Sources/TTNavigatorWindow.m'
p222
F1329000280.0
sS'/Users/samanthaknight/Documents/MoLease2012/three20/src/Three20UI/Sources/UITableViewAdditions.m'
p223
F1329000280.0
sS'/Users/samanthaknight/Documents/MoLease2012/three20/src/Three20UI/Headers/TTTableSubtextItemCell.h'
p224
F1329000280.0
sS'/Users/samanthaknight/Documents/MoLease2012/three20/src/Three20UI/Sources/TTStyledTextTableItemCell.m'
p225
F1329000280.0
sS'/Users/samanthaknight/Documents/MoLease2012/three20/src/Three20UI/Headers/TTPhotoVersion.h'
p226
F1329000280.0
sS'/Users/samanthaknight/Documents/MoLease2012/three20/src/Three20UI/Sources/TTScrollView.m'
p227
F1329000280.0
sS'/Users/samanthaknight/Documents/MoLease2012/three20/src/Three20UI/Headers/TTStyledTextTableItemCell.h'
p228
F1329000280.0
sS'/Users/samanthaknight/Documents/MoLease2012/three20/src/Three20UI/Sources/TTTableImageItem.m'
p229
F1329000280.0
sS'/Users/samanthaknight/Documents/MoLease2012/three20/src/Three20UI/Headers/TTTableRightCaptionItemCell.h'
p230
F1329000280.0
sS'/Users/samanthaknight/Documents/MoLease2012/three20/src/Three20UI/Sources/TTSearchDisplayController.m'
p231
F1329000280.0
sS'/Users/samanthaknight/Documents/MoLease2012/three20/src/Three20UI/Sources/TTTableActivityItem.m'
p232
F1329000280.0
sS'/Users/samanthaknight/Documents/MoLease2012/three20/src/Three20UI/Headers/TTTableViewGroupedVarHeightDelegate.h'
p233
F1329000280.0
sS'/Users/samanthaknight/Documents/MoLease2012/three20/src/Three20UI/Sources/TTTableViewNetworkEnabledDelegate.m'
p234
F1329000280.0
sS'/Users/samanthaknight/Documents/MoLease2012/three20/src/Three20UI/Sources/TTTableViewDelegate.m'
p235
F1329000280.0
sS'/Users/samanthaknight/Documents/MoLease2012/three20/src/Three20UI/Sources/TTTableLinkedItemCell.m'
p236
F1329000280.0
sS'/Users/samanthaknight/Documents/MoLease2012/three20/src/Three20UI/Headers/TTTableViewDelegate.h'
p237
F1329000280.0
sS'/Users/samanthaknight/Documents/MoLease2012/three20/src/Three20UI/Sources/TTMessageTextField.m'
p238
F1329000280.0
sS'/Users/samanthaknight/Documents/MoLease2012/three20/src/Three20UI/Headers/TTErrorView.h'
p239
F1329000280.0
sS'/Users/samanthaknight/Documents/MoLease2012/three20/src/Three20UI/Sources/TTMessageField.m'
p240
F1329000280.0
sS'/Users/samanthaknight/Documents/MoLease2012/three20/src/Three20UI/Headers/TTStyledTextTableCell.h'
p241
F1329000280.0
sS'/Users/samanthaknight/Documents/MoLease2012/three20/src/Three20UI/Sources/TTTableTextItemCell.m'
p242
F1329000280.0
sS'/Users/samanthaknight/Documents/MoLease2012/three20/src/Three20UI/Sources/UIWebViewAdditions.m'
p243
F1329000280.0
sS'/Users/samanthaknight/Documents/MoLease2012/three20/src/Three20UI/Sources/TTMessageRecipientField.m'
p244
F1329000280.0
sS'/Users/samanthaknight/Documents/MoLease2012/three20/src/Three20UI/Sources/TTButton.m'
p245
F1329000280.0
sS'/Users/samanthaknight/Documents/MoLease2012/three20/src/Three20UI/Sources/TTListDataSource.m'
p246
F1329000280.0
sS'/Users/samanthaknight/Documents/MoLease2012/three20/src/Three20UI/Sources/TTTableMessageItemCell.m'
p247
F1329000280.0
sS'/Users/samanthaknight/Documents/MoLease2012/three20/src/Three20UI/Headers/TTTableViewDataSource.h'
p248
F1329000280.0
sS'/Users/samanthaknight/Documents/MoLease2012/three20/src/Three20UI/Headers/TTPhotoView.h'
p249
F1329000280.0
sS'/Users/samanthaknight/Documents/MoLease2012/three20/src/Three20UI/Sources/TTTextEditor.m'
p250
F1329000280.0
sS'/Users/samanthaknight/Documents/MoLease2012/three20/src/Three20UI/Headers/UITableViewAdditions.h'
p251
F1329000280.0
sS'/Users/samanthaknight/Documents/MoLease2012/three20/src/Three20UI/Headers/TTButtonBar.h'
p252
F1329000280.0
sS'/Users/samanthaknight/Documents/MoLease2012/three20/src/Three20UI/Headers/TTActionSheetController.h'
p253
F1329000280.0
sS'/Users/samanthaknight/Documents/MoLease2012/three20/src/Three20UI/Sources/TTTableViewPlainDelegate.m'
p254
F1329000280.0
sS'/Users/samanthaknight/Documents/MoLease2012/three20/src/Three20UI/Sources/TTTableMoreButtonCell.m'
p255
F1329000280.0
sS'/Users/samanthaknight/Documents/MoLease2012/three20/src/Three20UI/Headers/UIToolbarAdditions.h'
p256
F1329000280.0
sS'/Users/samanthaknight/Documents/MoLease2012/three20/src/Three20UI/Sources/TTButtonBar.m'
p257
F1329000280.0
sS'/Users/samanthaknight/Documents/MoLease2012/three20/src/Three20UI/Sources/TTTableViewVarHeightDelegate.m'
p258
F1329000280.0
sS'/Users/samanthaknight/Documents/MoLease2012/three20/src/Three20UI/Headers/TTTableRightCaptionItem.h'
p259
F1329000280.0
sS'/Users/samanthaknight/Documents/MoLease2012/three20/src/Three20UI/Sources/TTTableViewController.m'
p260
F1329000280.0
sS'/Users/samanthaknight/Documents/MoLease2012/three20/src/Three20UI/Sources/TTMessageSubjectField.m'
p261
F1329000280.0
sS'/Users/samanthaknight/Documents/MoLease2012/three20/src/Three20UI/Headers/TTThumbsTableViewCellDelegate.h'
p262
F1329000280.0
sS'/Users/samanthaknight/Documents/MoLease2012/three20/src/Three20UI/Headers/TTTableLinkedItemCell.h'
p263
F1329000280.0
sS'/Users/samanthaknight/Documents/MoLease2012/three20/src/Three20UI/Sources/TTWebController.m'
p264
F1329000280.0
sS'/Users/samanthaknight/Documents/MoLease2012/three20/src/Three20UI/Headers/TTActionSheetControllerDelegate.h'
p265
F1329000280.0
s.