(dp0
S'/Users/samanthaknight/Documents/MoLease2012/three20/src/Three20Style/Headers/TTShape.h'
p1
F1329000280.0
sS'/Users/samanthaknight/Documents/MoLease2012/three20/src/Three20Style/Headers/TTLayout.h'
p2
F1329000280.0
sS'/Users/samanthaknight/Documents/MoLease2012/three20/src/Three20Style/Sources/TTSpeechBubbleShape.m'
p3
F1329000280.0
sS'/Users/samanthaknight/Documents/MoLease2012/three20/src/Three20Style/Headers/TTPosition.h'
p4
F1329000280.0
sS'/Users/samanthaknight/Documents/MoLease2012/three20/src/scripts/lint'
p5
F1329000280.0
sS'/Users/samanthaknight/Documents/MoLease2012/three20/src/Three20Style/Sources/TTTextStyle.m'
p6
F1329000280.0
sS'/Users/samanthaknight/Documents/MoLease2012/three20/src/Three20Style/Headers/TTShapeInternal.h'
p7
F1329000280.0
sS'/Users/samanthaknight/Documents/MoLease2012/three20/src/Three20Style/Headers/TTGridLayout.h'
p8
F1329000280.0
sS'/Users/samanthaknight/Documents/MoLease2012/three20/src/Three20Style/Sources/TTStyleContext.m'
p9
F1329000280.0
sS'/Users/samanthaknight/Documents/MoLease2012/three20/src/Three20Style/Headers/Three20Style+Additions.h'
p10
F1329000280.0
sS'/Users/samanthaknight/Documents/MoLease2012/three20/src/Three20Style/Sources/TTLinearGradientFillStyle.m'
p11
F1329000280.0
sS'/Users/samanthaknight/Documents/MoLease2012/three20/src/Three20Style/Headers/TTDefaultStyleSheet.h'
p12
F1329000280.0
sS'/Users/samanthaknight/Documents/MoLease2012/three20/src/Three20Style/Sources/TTStyledNode.m'
p13
F1329000280.0
sS'/Users/samanthaknight/Documents/MoLease2012/three20/src/Three20Style/Sources/TTRectangleShape.m'
p14
F1329000280.0
sS'/Users/samanthaknight/Documents/MoLease2012/three20/src/Three20Style/Sources/TTStyledLinkNode.m'
p15
F1329000280.0
sS'/Users/samanthaknight/Documents/MoLease2012/three20/src/Three20Style/Sources/TTImageStyle.m'
p16
F1329000280.0
sS'/Users/samanthaknight/Documents/MoLease2012/three20/src/Three20Style/Sources/TTShapeInternal.m'
p17
F1329000280.0
sS'/Users/samanthaknight/Documents/MoLease2012/three20/src/Three20Style/Sources/TTContentStyle.m'
p18
F1329000280.0
sS'/Users/samanthaknight/Documents/MoLease2012/three20/src/Three20Style/Headers/TTBlendStyle.h'
p19
F1329000280.0
sS'/Users/samanthaknight/Documents/MoLease2012/three20/src/Three20Style/Sources/TTBlendStyle.m'
p20
F1329000280.0
sS'/Users/samanthaknight/Documents/MoLease2012/three20/src/Three20Style/Sources/TTDefaultStyleSheet.m'
p21
F1329000280.0
sS'/Users/samanthaknight/Documents/MoLease2012/three20/src/Three20Style/Headers/TTStyledElement.h'
p22
F1329000280.0
sS'/Users/samanthaknight/Documents/MoLease2012/three20/src/Three20Style/Headers/TTShapeStyle.h'
p23
F1329000280.0
sS'/Users/samanthaknight/Documents/MoLease2012/three20/src/Three20Style/Sources/TTLayout.m'
p24
F1329000280.0
sS'/Users/samanthaknight/Documents/MoLease2012/three20/src/Three20Style/Sources/TTPartStyle.m'
p25
F1329000280.0
sS'/Users/samanthaknight/Documents/MoLease2012/three20/src/Three20Style/Headers/TTFlowLayout.h'
p26
F1329000280.0
sS'/Users/samanthaknight/Documents/MoLease2012/three20/src/Three20Style/Sources/TTStyledBlock.m'
p27
F1329000280.0
sS'/Users/samanthaknight/Documents/MoLease2012/three20/src/Three20Style/Sources/TTShadowStyle.m'
p28
F1329000280.0
sS'/Users/samanthaknight/Documents/MoLease2012/three20/src/Three20Style/Headers/TTStyledInline.h'
p29
F1329000280.0
sS'/Users/samanthaknight/Documents/MoLease2012/three20/src/Three20Style/Sources/TTShape.m'
p30
F1329000280.0
sS'/Users/samanthaknight/Documents/MoLease2012/three20/src/Three20Style/Headers/TTStyledTextDelegate.h'
p31
F1329000280.0
sS'/Users/samanthaknight/Documents/MoLease2012/three20/src/Three20Style/Headers/UIImageAdditions.h'
p32
F1329000280.0
sS'/Users/samanthaknight/Documents/MoLease2012/three20/src/Three20Style/Headers/TTRoundedLeftArrowShape.h'
p33
F1329000280.0
sS'/Users/samanthaknight/Documents/MoLease2012/three20/src/Three20Style/Headers/TTStyle.h'
p34
F1329000280.0
sS'/Users/samanthaknight/Documents/MoLease2012/three20/src/Three20Style/Headers/TTStyledTextParser.h'
p35
F1329000280.0
sS'/Users/samanthaknight/Documents/MoLease2012/three20/src/Three20Style/Headers/TTStyleDelegate.h'
p36
F1329000280.0
sS'/Users/samanthaknight/Documents/MoLease2012/three20/src/Three20Style/Sources/UIImageAdditions.m'
p37
F1329000280.0
sS'/Users/samanthaknight/Documents/MoLease2012/three20/src/Three20Style/Headers/TTStyledInlineFrame.h'
p38
F1329000280.0
sS'/Users/samanthaknight/Documents/MoLease2012/three20/src/Three20Style/Headers/TTReflectiveFillStyle.h'
p39
F1329000280.0
sS'/Users/samanthaknight/Documents/MoLease2012/three20/src/Three20Style/Sources/TTRoundedRectangleShape.m'
p40
F1329000280.0
sS'/Users/samanthaknight/Documents/MoLease2012/three20/src/Three20Style/Sources/TTStyledFrame.m'
p41
F1329000280.0
sS'/Users/samanthaknight/Documents/MoLease2012/three20/src/Three20Style/Headers/TTHighlightBorderStyle.h'
p42
F1329000280.0
sS'/Users/samanthaknight/Documents/MoLease2012/three20/src/Three20Style/Headers/TTTextStyle.h'
p43
F1329000280.0
sS'/Users/samanthaknight/Documents/MoLease2012/three20/src/Three20Style/Sources/TTRoundedRightArrowShape.m'
p44
F1329000280.0
sS'/Users/samanthaknight/Documents/MoLease2012/three20/src/Three20Style/Headers/TTStyledBlock.h'
p45
F1329000280.0
sS'/Users/samanthaknight/Documents/MoLease2012/three20/src/Three20Style/Sources/TTStyledNodeInternal.m'
p46
F1329000280.0
sS'/Users/samanthaknight/Documents/MoLease2012/three20/src/Three20Style/Headers/TTInsetStyle.h'
p47
F1329000280.0
sS'/Users/samanthaknight/Documents/MoLease2012/three20/src/Three20Style/Sources/TTStyleSheet.m'
p48
F1329000280.0
sS'/Users/samanthaknight/Documents/MoLease2012/three20/src/Three20Style/Sources/TTHighlightBorderStyle.m'
p49
F1329000280.0
sS'/Users/samanthaknight/Documents/MoLease2012/three20/src/Three20Style/Headers/TTStyledLineBreakNode.h'
p50
F1329000280.0
sS'/Users/samanthaknight/Documents/MoLease2012/three20/src/Three20Style/Sources/TTStyle.m'
p51
F1329000280.0
sS'/Users/samanthaknight/Documents/MoLease2012/three20/src/Three20Style/Headers/TTSolidFillStyle.h'
p52
F1329000280.0
sS'/Users/samanthaknight/Documents/MoLease2012/three20/src/Three20Style/Sources/TTInsetStyle.m'
p53
F1329000280.0
sS'/Users/samanthaknight/Documents/MoLease2012/three20/src/Three20Style/Sources/TTStyledButtonNode.m'
p54
F1329000280.0
sS'/Users/samanthaknight/Documents/MoLease2012/three20/src/Three20Style/Headers/TTStyledTextNode.h'
p55
F1329000280.0
sS'/Users/samanthaknight/Documents/MoLease2012/three20/src/Three20Style/Sources/TTStyledElement.m'
p56
F1329000280.0
sS'/Users/samanthaknight/Documents/MoLease2012/three20/src/Three20Style/Headers/TTBoxStyle.h'
p57
F1329000280.0
sS'/Users/samanthaknight/Documents/MoLease2012/three20/src/Three20Style/Headers/TTLinearGradientBorderStyle.h'
p58
F1329000280.0
sS'/Users/samanthaknight/Documents/MoLease2012/three20/src/Three20Style/Headers/TTStyledText.h'
p59
F1329000280.0
sS'/Users/samanthaknight/Documents/MoLease2012/three20/src/Three20Style/Headers/TTStyledFrame.h'
p60
F1329000280.0
sS'/Users/samanthaknight/Documents/MoLease2012/three20/src/Three20Style/Headers/TTRectangleShape.h'
p61
F1329000280.0
sS'/Users/samanthaknight/Documents/MoLease2012/three20/src/Three20Style/UnitTests/StyleAdditionTests.m'
p62
F1329000280.0
sS'/Users/samanthaknight/Documents/MoLease2012/three20/src/Three20Style/Sources/TTStyledInlineBlock.m'
p63
F1329000280.0
sS'/Users/samanthaknight/Documents/MoLease2012/three20/src/Three20Style/Sources/TTStyledTextParser.m'
p64
F1329000280.0
sS'/Users/samanthaknight/Documents/MoLease2012/three20/src/Three20Style/Sources/TTGlobalStyle.m'
p65
F1329000280.0
sS'/Users/samanthaknight/Documents/MoLease2012/three20/src/Three20Style/Sources/UIFontAdditions.m'
p66
F1329000280.0
sS'/Users/samanthaknight/Documents/MoLease2012/three20/src/Three20Style/Sources/TTStyledText.m'
p67
F1329000280.0
sS'/Users/samanthaknight/Documents/MoLease2012/three20/src/Three20Style/Headers/UIColorAdditions.h'
p68
F1329000280.0
sS'/Users/samanthaknight/Documents/MoLease2012/three20/src/Three20Style/Headers/TTStyledNodeInternal.h'
p69
F1329000280.0
sS'/Users/samanthaknight/Documents/MoLease2012/three20/src/Three20Style/Sources/TTStyledInlineFrame.m'
p70
F1329000280.0
sS'/Users/samanthaknight/Documents/MoLease2012/three20/src/Three20Style/Headers/TTStyledImageFrame.h'
p71
F1329000280.0
sS'/Users/samanthaknight/Documents/MoLease2012/three20/src/Three20Style/Headers/TTSolidBorderStyle.h'
p72
F1329000280.0
sS'/Users/samanthaknight/Documents/MoLease2012/three20/src/Three20Style/Headers/TTPartStyle.h'
p73
F1329000280.0
sS'/Users/samanthaknight/Documents/MoLease2012/three20/src/Three20Style/Sources/TTReflectiveFillStyle.m'
p74
F1329000280.0
sS'/Users/samanthaknight/Documents/MoLease2012/three20/src/Three20Style/Headers/TTSpeechBubbleShape.h'
p75
F1329000280.0
sS'/Users/samanthaknight/Documents/MoLease2012/three20/src/Three20Style/Headers/TTShadowStyle.h'
p76
F1329000280.0
sS'/Users/samanthaknight/Documents/MoLease2012/three20/src/Three20Style/Headers/TTFourBorderStyle.h'
p77
F1329000280.0
sS'/Users/samanthaknight/Documents/MoLease2012/three20/src/Three20Style/Sources/TTInnerShadowStyle.m'
p78
F1329000280.0
sS'/Users/samanthaknight/Documents/MoLease2012/three20/src/Three20Style/Sources/UIColorAdditions.m'
p79
F1329000280.0
sS'/Users/samanthaknight/Documents/MoLease2012/three20/src/Three20Style/Headers/TTStyleInternal.h'
p80
F1329000280.0
sS'/Users/samanthaknight/Documents/MoLease2012/three20/src/Three20Style/Sources/TTStyledLayout.m'
p81
F1329000280.0
sS'/Users/samanthaknight/Documents/MoLease2012/three20/src/Three20Style/Headers/TTStyledButtonNode.h'
p82
F1329000280.0
sS'/Users/samanthaknight/Documents/MoLease2012/three20/src/Three20Style/Sources/TTSolidFillStyle.m'
p83
F1329000280.0
sS'/Users/samanthaknight/Documents/MoLease2012/three20/src/Three20Style/Sources/TTSolidBorderStyle.m'
p84
F1329000280.0
sS'/Users/samanthaknight/Documents/MoLease2012/three20/src/Three20Style/Sources/TTGridLayout.m'
p85
F1329000280.0
sS'/Users/samanthaknight/Documents/MoLease2012/three20/src/Three20Style/Sources/TTFourBorderStyle.m'
p86
F1329000280.0
sS'/Users/samanthaknight/Documents/MoLease2012/three20/src/Three20Style/Sources/TTStyledImageNode.m'
p87
F1329000280.0
sS'/Users/samanthaknight/Documents/MoLease2012/three20/src/Three20Style/Sources/TTBevelBorderStyle.m'
p88
F1329000280.0
sS'/Users/samanthaknight/Documents/MoLease2012/three20/src/Three20Style/Headers/TTStyledInlineBlock.h'
p89
F1329000280.0
sS'/Users/samanthaknight/Documents/MoLease2012/three20/src/Three20Style/Sources/TTFlowLayout.m'
p90
F1329000280.0
sS'/Users/samanthaknight/Documents/MoLease2012/three20/src/Three20Style/Sources/TTStyledItalicNode.m'
p91
F1329000280.0
sS'/Users/samanthaknight/Documents/MoLease2012/three20/src/Three20Style/Headers/TTGlobalStyle.h'
p92
F1329000280.0
sS'/Users/samanthaknight/Documents/MoLease2012/three20/src/Three20Style/Headers/TTStyleContext.h'
p93
F1329000280.0
sS'/Users/samanthaknight/Documents/MoLease2012/three20/src/Three20Style/Headers/UIFontAdditions.h'
p94
F1329000280.0
sS'/Users/samanthaknight/Documents/MoLease2012/three20/src/Three20Style/Headers/TTLinearGradientFillStyle.h'
p95
F1329000280.0
sS'/Users/samanthaknight/Documents/MoLease2012/three20/src/Three20Style/UnitTests/StyleGlobalTests.m'
p96
F1329000280.0
sS'/Users/samanthaknight/Documents/MoLease2012/three20/src/Three20Style/Sources/TTStyleInternal.m'
p97
F1329000280.0
sS'/Users/samanthaknight/Documents/MoLease2012/three20/src/Three20Style/Sources/TTStyledBoldNode.m'
p98
F1329000280.0
sS'/Users/samanthaknight/Documents/MoLease2012/three20/src/Three20Style/Headers/TTStyledNode.h'
p99
F1329000280.0
sS'/Users/samanthaknight/Documents/MoLease2012/three20/src/Three20Style/Sources/TTBoxStyle.m'
p100
F1329000280.0
sS'/Users/samanthaknight/Documents/MoLease2012/three20/src/Three20Style/Headers/TTImageStyle.h'
p101
F1329000280.0
sS'/Users/samanthaknight/Documents/MoLease2012/three20/src/Three20Style/Sources/TTStyledTextFrame.m'
p102
F1329000280.0
sS'/Users/samanthaknight/Documents/MoLease2012/three20/src/Three20Style/Headers/TTInnerShadowStyle.h'
p103
F1329000280.0
sS'/Users/samanthaknight/Documents/MoLease2012/three20/src/Three20Style/Headers/Three20Style.h'
p104
F1329000280.0
sS'/Users/samanthaknight/Documents/MoLease2012/three20/src/Three20Style/Headers/TTContentStyle.h'
p105
F1329000280.0
sS'/Users/samanthaknight/Documents/MoLease2012/three20/src/Three20Style/Sources/TTStyledLineBreakNode.m'
p106
F1329000280.0
sS'/Users/samanthaknight/Documents/MoLease2012/three20/src/Three20Style/Headers/TTStyledLayout.h'
p107
F1329000280.0
sS'/Users/samanthaknight/Documents/MoLease2012/three20/src/Three20Style/Headers/TTStyleSheet.h'
p108
F1329000280.0
sS'/Users/samanthaknight/Documents/MoLease2012/three20/src/Three20Style/Sources/TTStyledInline.m'
p109
F1329000280.0
sS'/Users/samanthaknight/Documents/MoLease2012/three20/src/Three20Style/Sources/TTStyledBoxFrame.m'
p110
F1329000280.0
sS'/Users/samanthaknight/Documents/MoLease2012/three20/src/Three20Style/Headers/TTStyledBoldNode.h'
p111
F1329000280.0
sS'/Users/samanthaknight/Documents/MoLease2012/three20/src/Three20Style/Headers/TTDefaultStyleSheet+DragRefreshHeader.h'
p112
F1329000280.0
sS'/Users/samanthaknight/Documents/MoLease2012/three20/src/Three20Style/Headers/TTStyledLinkNode.h'
p113
F1329000280.0
sS'/Users/samanthaknight/Documents/MoLease2012/three20/src/Three20Style/Headers/TTStyledImageNode.h'
p114
F1329000280.0
sS'/Users/samanthaknight/Documents/MoLease2012/three20/src/Three20Style/Headers/TTBevelBorderStyle.h'
p115
F1329000280.0
sS'/Users/samanthaknight/Documents/MoLease2012/three20/src/Three20Style/Sources/TTStyledImageFrame.m'
p116
F1329000280.0
sS'/Users/samanthaknight/Documents/MoLease2012/three20/src/Three20Style/Sources/TTRoundedLeftArrowShape.m'
p117
F1329000280.0
sS'/Users/samanthaknight/Documents/MoLease2012/three20/src/Three20Style/Sources/TTStyledTextNode.m'
p118
F1329000280.0
sS'/Users/samanthaknight/Documents/MoLease2012/three20/src/Three20Style/Headers/TTStyledBoxFrame.h'
p119
F1329000280.0
sS'/Users/samanthaknight/Documents/MoLease2012/three20/src/Three20Style/Sources/TTLinearGradientBorderStyle.m'
p120
F1329000280.0
sS'/Users/samanthaknight/Documents/MoLease2012/three20/src/Three20Style/Headers/TTMaskStyle.h'
p121
F1329000280.0
sS'/Users/samanthaknight/Documents/MoLease2012/three20/src/Three20Style/Headers/TTRoundedRightArrowShape.h'
p122
F1329000280.0
sS'/Users/samanthaknight/Documents/MoLease2012/three20/src/Three20Style/Headers/TTRoundedRectangleShape.h'
p123
F1329000280.0
sS'/Users/samanthaknight/Documents/MoLease2012/three20/src/Three20Style/Headers/TTStyledItalicNode.h'
p124
F1329000280.0
sS'/Users/samanthaknight/Documents/MoLease2012/three20/src/Three20Style/Sources/TTShapeStyle.m'
p125
F1329000280.0
sS'/Users/samanthaknight/Documents/MoLease2012/three20/src/Three20Style/Sources/TTMaskStyle.m'
p126
F1329000280.0
sS'/Users/samanthaknight/Documents/MoLease2012/three20/src/Three20Style/Headers/TTStyledTextFrame.h'
p127
F1329000280.0
s.