(dp0
S'/Users/samanthaknight/Documents/MoLease2012/three20/src/Three20UINavigator/Headers/Three20UINavigator.h'
p1
F1329000280.0
sS'/Users/samanthaknight/Documents/MoLease2012/three20/src/Three20UINavigator/Sources/UIViewController+TTNavigator.m'
p2
F1329000280.0
sS'/Users/samanthaknight/Documents/MoLease2012/three20/src/Three20UINavigator/Headers/TTURLArguments.h'
p3
F1329000280.0
sS'/Users/samanthaknight/Documents/MoLease2012/three20/src/Three20UINavigator/Sources/TTURLSelector.m'
p4
F1329000280.0
sS'/Users/samanthaknight/Documents/MoLease2012/three20/src/Three20UINavigator/Headers/TTGlobalNavigatorMetrics.h'
p5
F1329000280.0
sS'/Users/samanthaknight/Documents/MoLease2012/three20/src/Three20UINavigator/Sources/TTNavigatorViewController.m'
p6
F1329000280.0
sS'/Users/samanthaknight/Documents/MoLease2012/three20/src/Three20UINavigator/Headers/TTNavigatorPersistenceMode.h'
p7
F1329000280.0
sS'/Users/samanthaknight/Documents/MoLease2012/three20/src/scripts/lint'
p8
F1329000280.0
sS'/Users/samanthaknight/Documents/MoLease2012/three20/src/Three20UINavigator/Sources/TTURLWildcard.m'
p9
F1329000280.0
sS'/Users/samanthaknight/Documents/MoLease2012/three20/src/Three20UINavigator/Sources/TTURLLiteral.m'
p10
F1329000280.0
sS'/Users/samanthaknight/Documents/MoLease2012/three20/src/Three20UINavigator/Headers/UIViewController+TTNavigator.h'
p11
F1329000280.0
sS'/Users/samanthaknight/Documents/MoLease2012/three20/src/Three20UINavigator/Sources/TTURLPatternInternal.m'
p12
F1329000280.0
sS'/Users/samanthaknight/Documents/MoLease2012/three20/src/Three20UINavigator/Sources/TTBaseNavigationController.m'
p13
F1329000280.0
sS'/Users/samanthaknight/Documents/MoLease2012/three20/src/Three20UINavigator/Sources/TTURLArguments.m'
p14
F1329000280.0
sS'/Users/samanthaknight/Documents/MoLease2012/three20/src/Three20UINavigator/Headers/Three20UINavigator+Additions.h'
p15
F1329000280.0
sS'/Users/samanthaknight/Documents/MoLease2012/three20/src/Three20UINavigator/Sources/TTURLAction.m'
p16
F1329000280.0
sS'/Users/samanthaknight/Documents/MoLease2012/three20/src/Three20UINavigator/Sources/TTBaseNavigator.m'
p17
F1329000280.0
sS'/Users/samanthaknight/Documents/MoLease2012/three20/src/Three20UINavigator/Headers/TTURLAction.h'
p18
F1329000280.0
sS'/Users/samanthaknight/Documents/MoLease2012/three20/src/Three20UINavigator/Headers/TTURLNavigatorPattern.h'
p19
F1329000280.0
sS'/Users/samanthaknight/Documents/MoLease2012/three20/src/Three20UINavigator/Headers/TTBaseNavigator.h'
p20
F1329000280.0
sS'/Users/samanthaknight/Documents/MoLease2012/three20/src/Three20UINavigator/Headers/TTURLMap.h'
p21
F1329000280.0
sS'/Users/samanthaknight/Documents/MoLease2012/three20/src/Three20UINavigator/Headers/TTURLLiteral.h'
p22
F1329000280.0
sS'/Users/samanthaknight/Documents/MoLease2012/three20/src/Three20UINavigator/Headers/TTNavigatorDelegate.h'
p23
F1329000280.0
sS'/Users/samanthaknight/Documents/MoLease2012/three20/src/Three20UINavigator/Headers/TTURLPattern.h'
p24
F1329000280.0
sS'/Users/samanthaknight/Documents/MoLease2012/three20/src/Three20UINavigator/Headers/TTURLPatternText.h'
p25
F1329000280.0
sS'/Users/samanthaknight/Documents/MoLease2012/three20/src/Three20UINavigator/Sources/TTURLGeneratorPattern.m'
p26
F1329000280.0
sS'/Users/samanthaknight/Documents/MoLease2012/three20/src/Three20UINavigator/Headers/TTURLSelector.h'
p27
F1329000280.0
sS'/Users/samanthaknight/Documents/MoLease2012/three20/src/Three20UINavigator/Sources/TTURLPattern.m'
p28
F1329000280.0
sS'/Users/samanthaknight/Documents/MoLease2012/three20/src/Three20UINavigator/Headers/TTURLPatternInternal.h'
p29
F1329000280.0
sS'/Users/samanthaknight/Documents/MoLease2012/three20/src/Three20UINavigator/Headers/TTURLWildcard.h'
p30
F1329000280.0
sS'/Users/samanthaknight/Documents/MoLease2012/three20/src/Three20UINavigator/Headers/TTURLGeneratorPattern.h'
p31
F1329000280.0
sS'/Users/samanthaknight/Documents/MoLease2012/three20/src/Three20UINavigator/Headers/TTNavigatorViewController.h'
p32
F1329000280.0
sS'/Users/samanthaknight/Documents/MoLease2012/three20/src/Three20UINavigator/UnitTests/TTURLActionTests.m'
p33
F1329000280.0
sS'/Users/samanthaknight/Documents/MoLease2012/three20/src/Three20UINavigator/Headers/UIViewController+TTNavigatorGarbageCollection.h'
p34
F1329000280.0
sS'/Users/samanthaknight/Documents/MoLease2012/three20/src/Three20UINavigator/Sources/TTURLMap.m'
p35
F1329000280.0
sS'/Users/samanthaknight/Documents/MoLease2012/three20/src/Three20UINavigator/Headers/TTBaseNavigatorInternal.h'
p36
F1329000280.0
sS'/Users/samanthaknight/Documents/MoLease2012/three20/src/Three20UINavigator/UnitTests/UIViewControllerAdditionTests.m'
p37
F1329000280.0
sS'/Users/samanthaknight/Documents/MoLease2012/three20/src/Three20UINavigator/Sources/TTURLNavigatorPattern.m'
p38
F1329000280.0
sS'/Users/samanthaknight/Documents/MoLease2012/three20/src/Three20UINavigator/Headers/TTBaseNavigationController.h'
p39
F1329000280.0
sS'/Users/samanthaknight/Documents/MoLease2012/three20/src/Three20UINavigator/Sources/TTGlobalNavigatorMetrics.m'
p40
F1329000280.0
sS'/Users/samanthaknight/Documents/MoLease2012/three20/src/Three20UINavigator/Headers/TTNavigationMode.h'
p41
F1329000280.0
sS'/Users/samanthaknight/Documents/MoLease2012/three20/src/Three20UINavigator/Headers/TTNavigatorRootContainer.h'
p42
F1329000280.0
sS'/Users/samanthaknight/Documents/MoLease2012/three20/src/Three20UINavigator/Headers/TTURLObject.h'
p43
F1329000280.0
sS'/Users/samanthaknight/Documents/MoLease2012/three20/src/Three20UINavigator/Headers/TTURLArgumentType.h'
p44
F1329000280.0
s.