(dp0
S'/Users/samanthaknight/Documents/MoLease2012/three20/src/Three20Network/Sources/TTModel.m'
p1
F1329000280.0
sS'/Users/samanthaknight/Documents/MoLease2012/three20/src/scripts/lint'
p2
F1329000280.0
sS'/Users/samanthaknight/Documents/MoLease2012/three20/src/Three20Network/Headers/TTURLRequestQueueInternal.h'
p3
F1329000280.0
sS'/Users/samanthaknight/Documents/MoLease2012/three20/src/Three20Network/Headers/TTURLImageResponse.h'
p4
F1329000280.0
sS'/Users/samanthaknight/Documents/MoLease2012/three20/src/Three20Network/Headers/TTURLRequest.h'
p5
F1329000280.0
sS'/Users/samanthaknight/Documents/MoLease2012/three20/src/Three20Network/Sources/TTGlobalNetwork.m'
p6
F1329000280.0
sS'/Users/samanthaknight/Documents/MoLease2012/three20/src/Three20Network/Headers/TTErrorCodes.h'
p7
F1329000280.0
sS'/Users/samanthaknight/Documents/MoLease2012/three20/src/Three20Network/Headers/TTURLDataResponse.h'
p8
F1329000280.0
sS'/Users/samanthaknight/Documents/MoLease2012/three20/src/Three20Network/Headers/TTURLResponse.h'
p9
F1329000280.0
sS'/Users/samanthaknight/Documents/MoLease2012/three20/src/Three20Network/Sources/TTURLRequest.m'
p10
F1329000280.0
sS'/Users/samanthaknight/Documents/MoLease2012/three20/src/Three20Network/Sources/TTURLRequestModel.m'
p11
F1329000280.0
sS'/Users/samanthaknight/Documents/MoLease2012/three20/src/Three20Network/Sources/TTErrorCodes.m'
p12
F1329000280.0
sS'/Users/samanthaknight/Documents/MoLease2012/three20/src/Three20Network/Headers/TTUserInfo.h'
p13
F1329000280.0
sS'/Users/samanthaknight/Documents/MoLease2012/three20/src/Three20Network/Headers/TTURLRequestModel.h'
p14
F1329000280.0
sS'/Users/samanthaknight/Documents/MoLease2012/three20/src/Three20Network/Headers/TTURLRequestCachePolicy.h'
p15
F1329000280.0
sS'/Users/samanthaknight/Documents/MoLease2012/three20/src/Three20Network/UnitTests/mocks/MockModelDelegate.m'
p16
F1329000280.0
sS'/Users/samanthaknight/Documents/MoLease2012/three20/src/Three20Network/Sources/TTURLDataResponse.m'
p17
F1329000280.0
sS'/Users/samanthaknight/Documents/MoLease2012/three20/src/Three20Network/UnitTests/NetworkModelTests.m'
p18
F1329000280.0
sS'/Users/samanthaknight/Documents/MoLease2012/three20/src/Three20Network/Sources/TTRequestLoader.m'
p19
F1329000280.0
sS'/Users/samanthaknight/Documents/MoLease2012/three20/src/Three20Network/Sources/TTURLRequestQueue.m'
p20
F1329000280.0
sS'/Users/samanthaknight/Documents/MoLease2012/three20/src/Three20Network/Sources/TTURLCache.m'
p21
F1329000280.0
sS'/Users/samanthaknight/Documents/MoLease2012/three20/src/Three20Network/Headers/TTURLCache.h'
p22
F1329000280.0
sS'/Users/samanthaknight/Documents/MoLease2012/three20/src/Three20Network/Headers/Three20Network_Prefix.pch'
p23
F1329000280.0
sS'/Users/samanthaknight/Documents/MoLease2012/three20/src/Three20Network/Headers/TTModelDelegate.h'
p24
F1329000280.0
sS'/Users/samanthaknight/Documents/MoLease2012/three20/src/Three20Network/Headers/Three20Network.h'
p25
F1329000280.0
sS'/Users/samanthaknight/Documents/MoLease2012/three20/src/Three20Network/Headers/TTGlobalNetwork.h'
p26
F1329000280.0
sS'/Users/samanthaknight/Documents/MoLease2012/three20/src/Three20Network/Headers/TTURLRequestQueue.h'
p27
F1329000280.0
sS'/Users/samanthaknight/Documents/MoLease2012/three20/src/Three20Network/Headers/TTRequestLoader.h'
p28
F1329000280.0
sS'/Users/samanthaknight/Documents/MoLease2012/three20/src/Three20Network/Headers/TTModel.h'
p29
F1329000280.0
sS'/Users/samanthaknight/Documents/MoLease2012/three20/src/Three20Network/Sources/TTURLImageResponse.m'
p30
F1329000280.0
sS'/Users/samanthaknight/Documents/MoLease2012/three20/src/Three20Network/Headers/TTURLRequestDelegate.h'
p31
F1329000280.0
sS'/Users/samanthaknight/Documents/MoLease2012/three20/src/Three20Network/Sources/TTUserInfo.m'
p32
F1329000280.0
sS'/Users/samanthaknight/Documents/MoLease2012/three20/src/Three20Network/UnitTests/NetworkURLCacheTests.m'
p33
F1329000280.0
s.